target datalayout = "e-m:e-p270:32:32-p271:32:32-p272:64:64-i64:64-i128:128-f80:128-n8:16:32:64-S128"
target triple = "x86_64-unknown-linux-gnu"

%"class.proxygen::HTTP2PriorityQueue::Node" = type { %"class.proxygen::HTTP2PriorityQueueBase::BaseNode", %"class.folly::HHWheelTimerBase<std::chrono::duration<long, std::ratio<1, 1000>>>::Callback", ptr, ptr, i64, i16, ptr, i8, i8, i64, i64, %"class.std::__cxx11::list", %"struct.std::_List_iterator", %"class.boost::intrusive::list_member_hook", %"class.boost::intrusive::list" }
%"class.proxygen::HTTP2PriorityQueueBase::BaseNode" = type { ptr }
%"class.folly::HHWheelTimerBase<std::chrono::duration<long, std::ratio<1, 1000>>>::Callback" = type { ptr, %"class.boost::intrusive::list_base_hook", ptr, %"class.std::chrono::time_point", i32, %"class.std::shared_ptr" }
%"class.boost::intrusive::list_base_hook" = type { %"class.boost::intrusive::generic_hook" }
%"class.boost::intrusive::generic_hook" = type { %"struct.boost::intrusive::node_holder" }
%"struct.boost::intrusive::node_holder" = type { %"struct.boost::intrusive::list_node" }
%"struct.boost::intrusive::list_node" = type { ptr, ptr }
%"class.std::chrono::time_point" = type { %"class.std::chrono::duration" }
%"class.std::chrono::duration" = type { i64 }
%"class.std::shared_ptr" = type { %"class.std::__shared_ptr" }
%"class.std::__shared_ptr" = type { ptr, %"class.std::__shared_count" }
%"class.std::__shared_count" = type { ptr }
%"class.std::__cxx11::list" = type { %"class.std::__cxx11::_List_base" }
%"class.std::__cxx11::_List_base" = type { %"struct.std::__cxx11::_List_base<std::unique_ptr<proxygen::HTTP2PriorityQueue::Node>, std::allocator<std::unique_ptr<proxygen::HTTP2PriorityQueue::Node>>>::_List_impl" }
%"struct.std::__cxx11::_List_base<std::unique_ptr<proxygen::HTTP2PriorityQueue::Node>, std::allocator<std::unique_ptr<proxygen::HTTP2PriorityQueue::Node>>>::_List_impl" = type { %"struct.std::__detail::_List_node_header" }
%"struct.std::__detail::_List_node_header" = type { %"struct.std::__detail::_List_node_base", i64 }
%"struct.std::__detail::_List_node_base" = type { ptr, ptr }
%"struct.std::_List_iterator" = type { ptr }
%"class.boost::intrusive::list_member_hook" = type { %"class.boost::intrusive::generic_hook.0" }
%"class.boost::intrusive::generic_hook.0" = type { %"struct.boost::intrusive::list_node" }
%"class.boost::intrusive::list" = type { %"class.boost::intrusive::list_impl" }
%"class.boost::intrusive::list_impl" = type { %"struct.boost::intrusive::list_impl<boost::intrusive::mhtraits<proxygen::HTTP2PriorityQueue::Node, boost::intrusive::list_member_hook<boost::intrusive::link_mode<boost::intrusive::auto_unlink>>, &proxygen::HTTP2PriorityQueue::Node::enqueuedHook_>, unsigned long, false, void>::data_t" }
%"struct.boost::intrusive::list_impl<boost::intrusive::mhtraits<proxygen::HTTP2PriorityQueue::Node, boost::intrusive::list_member_hook<boost::intrusive::link_mode<boost::intrusive::auto_unlink>>, &proxygen::HTTP2PriorityQueue::Node::enqueuedHook_>, unsigned long, false, void>::data_t" = type { %"struct.boost::intrusive::list_impl<boost::intrusive::mhtraits<proxygen::HTTP2PriorityQueue::Node, boost::intrusive::list_member_hook<boost::intrusive::link_mode<boost::intrusive::auto_unlink>>, &proxygen::HTTP2PriorityQueue::Node::enqueuedHook_>, unsigned long, false, void>::root_plus_size" }
%"struct.boost::intrusive::list_impl<boost::intrusive::mhtraits<proxygen::HTTP2PriorityQueue::Node, boost::intrusive::list_member_hook<boost::intrusive::link_mode<boost::intrusive::auto_unlink>>, &proxygen::HTTP2PriorityQueue::Node::enqueuedHook_>, unsigned long, false, void>::root_plus_size" = type { %"struct.boost::intrusive::detail::default_header_holder" }
%"struct.boost::intrusive::detail::default_header_holder" = type { %"struct.boost::intrusive::list_node" }

; Function Attrs: mustprogress uwtable
define linkonce_odr void @_ZN8proxygen18HTTP2PriorityQueue4Node14refreshTimeoutEv(ptr noundef nonnull align 8 dereferenceable(200) %this) #5 comdat align 2 {
entry:
  %this.addr = alloca ptr, align 8
  store ptr %this, ptr %this.addr, align 8
  %this1 = load ptr, ptr %this.addr, align 8
  %txn_ = getelementptr inbounds %"class.proxygen::HTTP2PriorityQueue::Node", ptr %this1, i32 0, i32 6
  %0 = load ptr, ptr %txn_, align 8
  %tobool = icmp ne ptr %0, null
  br i1 %tobool, label %if.end, label %land.lhs.true

land.lhs.true:                                    ; preds = %entry
  %isPermanent_ = getelementptr inbounds %"class.proxygen::HTTP2PriorityQueue::Node", ptr %this1, i32 0, i32 7
  %1 = load i8, ptr %isPermanent_, align 8
  %tobool2 = trunc i8 %1 to i1
  br i1 %tobool2, label %if.end, label %land.lhs.true3

land.lhs.true3:                                   ; preds = %land.lhs.true
  %add.ptr = getelementptr inbounds i8, ptr %this1, i64 8
  %call = call noundef zeroext i1 @_ZNK5folly16HHWheelTimerBaseINSt6chrono8durationIlSt5ratioILl1ELl1000EEEEE8Callback11isScheduledEv(ptr noundef nonnull align 8 dereferenceable(64) %add.ptr)
  br i1 %call, label %if.then, label %if.end

if.then:                                          ; preds = %land.lhs.true3
  %queue_ = getelementptr inbounds %"class.proxygen::HTTP2PriorityQueue::Node", ptr %this1, i32 0, i32 2
  %2 = load ptr, ptr %queue_, align 8
  call void @_ZN8proxygen18HTTP2PriorityQueue22scheduleNodeExpirationEPNS0_4NodeE(ptr noundef nonnull align 8 dereferenceable(312) %2, ptr noundef %this1)
  br label %if.end

if.end:                                           ; preds = %if.then, %land.lhs.true3, %land.lhs.true, %entry
  ret void
}

; Function Attrs: mustprogress uwtable
define linkonce_odr noundef zeroext i1 @_ZNK8proxygen18HTTP2PriorityQueue4Node12inEgressTreeEv(ptr noundef nonnull align 8 dereferenceable(200) %this) #5 comdat align 2 {
entry:
  %this.addr = alloca ptr, align 8
  store ptr %this, ptr %this.addr, align 8
  %this1 = load ptr, ptr %this.addr, align 8
  %vtable = load ptr, ptr %this1, align 8
  %vfn = getelementptr inbounds ptr, ptr %vtable, i64 2
  %0 = load ptr, ptr %vfn, align 8
  %call = call noundef zeroext i1 %0(ptr noundef nonnull align 8 dereferenceable(200) %this1)
  br i1 %call, label %lor.end, label %lor.rhs

lor.rhs:                                          ; preds = %entry
  %totalEnqueuedWeight_ = getelementptr inbounds %"class.proxygen::HTTP2PriorityQueue::Node", ptr %this1, i32 0, i32 9
  %1 = load i64, ptr %totalEnqueuedWeight_, align 8
  %cmp = icmp ugt i64 %1, 0
  br label %lor.end

lor.end:                                          ; preds = %lor.rhs, %entry
  %2 = phi i1 [ true, %entry ], [ %cmp, %lor.rhs ]
  ret i1 %2
}

; Function Attrs: mustprogress uwtable
define void @_ZN8proxygen18HTTP2PriorityQueue4Node12updateWeightEh(ptr noundef nonnull align 8 dereferenceable(200) %this, i8 noundef zeroext %weight) #5 align 2 {
entry:
  %this.addr = alloca ptr, align 8
  %weight.addr = alloca i8, align 1
  %delta = alloca i16, align 2
  store ptr %this, ptr %this.addr, align 8
  store i8 %weight, ptr %weight.addr, align 1
  %this1 = load ptr, ptr %this.addr, align 8
  %0 = load i8, ptr %weight.addr, align 1
  %conv = zext i8 %0 to i32
  %weight_ = getelementptr inbounds %"class.proxygen::HTTP2PriorityQueue::Node", ptr %this1, i32 0, i32 5
  %1 = load i16, ptr %weight_, align 8
  %conv2 = zext i16 %1 to i32
  %sub = sub nsw i32 %conv, %conv2
  %add = add nsw i32 %sub, 1
  %conv3 = trunc i32 %add to i16
  store i16 %conv3, ptr %delta, align 2
  %2 = load i8, ptr %weight.addr, align 1
  %conv4 = zext i8 %2 to i32
  %add5 = add nsw i32 %conv4, 1
  %conv6 = trunc i32 %add5 to i16
  %weight_7 = getelementptr inbounds %"class.proxygen::HTTP2PriorityQueue::Node", ptr %this1, i32 0, i32 5
  store i16 %conv6, ptr %weight_7, align 8
  %3 = load i16, ptr %delta, align 2
  %conv8 = sext i16 %3 to i64
  %parent_ = getelementptr inbounds %"class.proxygen::HTTP2PriorityQueue::Node", ptr %this1, i32 0, i32 3
  %4 = load ptr, ptr %parent_, align 8
  %totalChildWeight_ = getelementptr inbounds %"class.proxygen::HTTP2PriorityQueue::Node", ptr %4, i32 0, i32 10
  %5 = load i64, ptr %totalChildWeight_, align 8
  %add9 = add i64 %5, %conv8
  store i64 %add9, ptr %totalChildWeight_, align 8
  %call = call noundef zeroext i1 @_ZNK8proxygen18HTTP2PriorityQueue4Node12inEgressTreeEv(ptr noundef nonnull align 8 dereferenceable(200) %this1)
  br i1 %call, label %if.then, label %if.end

if.then:                                          ; preds = %entry
  %6 = load i16, ptr %delta, align 2
  %conv10 = sext i16 %6 to i64
  %parent_11 = getelementptr inbounds %"class.proxygen::HTTP2PriorityQueue::Node", ptr %this1, i32 0, i32 3
  %7 = load ptr, ptr %parent_11, align 8
  %totalEnqueuedWeight_ = getelementptr inbounds %"class.proxygen::HTTP2PriorityQueue::Node", ptr %7, i32 0, i32 9
  %8 = load i64, ptr %totalEnqueuedWeight_, align 8
  %add12 = add i64 %8, %conv10
  store i64 %add12, ptr %totalEnqueuedWeight_, align 8
  br label %if.end

if.end:                                           ; preds = %if.then, %entry
  call void @_ZN8proxygen18HTTP2PriorityQueue4Node14refreshTimeoutEv(ptr noundef nonnull align 8 dereferenceable(200) %this1)
  ret void
}