; Function Attrs: mustprogress uwtable
define void @_ZN8proxygen18HTTP2PriorityQueue4Node12updateWeightEh(ptr noundef nonnull align 8 dereferenceable(200) %this, i8 noundef zeroext %weight) local_unnamed_addr #4 align 2 {
entry:
  %conv = zext i8 %weight to i16
  %weight_ = getelementptr inbounds i8, ptr %this, i64 96
  %0 = load i16, ptr %weight_, align 8
  %1 = add nuw nsw i16 %conv, 1
  %conv3 = sub i16 %1, %0
  store i16 %1, ptr %weight_, align 8
  %conv8 = sext i16 %conv3 to i64
  %parent_ = getelementptr inbounds i8, ptr %this, i64 80
  %2 = load ptr, ptr %parent_, align 8
  %totalChildWeight_ = getelementptr inbounds i8, ptr %2, i64 128
  %3 = load i64, ptr %totalChildWeight_, align 8
  %add9 = add i64 %3, %conv8
  store i64 %add9, ptr %totalChildWeight_, align 8
  %vtable.i = load ptr, ptr %this, align 8
  %vfn.i = getelementptr inbounds i8, ptr %vtable.i, i64 16
  %4 = load ptr, ptr %vfn.i, align 8
  %call.i = tail call noundef zeroext i1 %4(ptr noundef nonnull align 8 dereferenceable(200) %this)
  %totalEnqueuedWeight_.i = getelementptr inbounds i8, ptr %this, i64 120
  %5 = load i64, ptr %totalEnqueuedWeight_.i, align 8
  %cmp.i = icmp ne i64 %5, 0
  %6 = select i1 %call.i, i1 true, i1 %cmp.i
  br i1 %6, label %if.then, label %if.end

if.then:                                          ; preds = %entry
  %7 = load ptr, ptr %parent_, align 8
  %totalEnqueuedWeight_ = getelementptr inbounds i8, ptr %7, i64 120
  %8 = load i64, ptr %totalEnqueuedWeight_, align 8
  %add12 = add i64 %8, %conv8
  store i64 %add12, ptr %totalEnqueuedWeight_, align 8
  br label %if.end

if.end:                                           ; preds = %if.then, %entry
  %txn_.i = getelementptr inbounds i8, ptr %this, i64 104
  %9 = load ptr, ptr %txn_.i, align 8
  %tobool.not.i = icmp eq ptr %9, null
  br i1 %tobool.not.i, label %land.lhs.true.i, label %_ZN8proxygen18HTTP2PriorityQueue4Node14refreshTimeoutEv.exit

land.lhs.true.i:                                  ; preds = %if.end
  %isPermanent_.i = getelementptr inbounds i8, ptr %this, i64 112
  %10 = load i8, ptr %isPermanent_.i, align 8
  %11 = and i8 %10, 1
  %tobool2.not.i = icmp eq i8 %11, 0
  br i1 %tobool2.not.i, label %land.lhs.true3.i, label %_ZN8proxygen18HTTP2PriorityQueue4Node14refreshTimeoutEv.exit

land.lhs.true3.i:                                 ; preds = %land.lhs.true.i
  %add.ptr.i = getelementptr inbounds i8, ptr %this, i64 8
  %call.i3 = tail call noundef zeroext i1 @_ZNK5folly16HHWheelTimerBaseINSt6chrono8durationIlSt5ratioILl1ELl1000EEEEE8Callback11isScheduledEv(ptr noundef nonnull align 8 dereferenceable(64) %add.ptr.i)
  br i1 %call.i3, label %if.then.i, label %_ZN8proxygen18HTTP2PriorityQueue4Node14refreshTimeoutEv.exit

if.then.i:                                        ; preds = %land.lhs.true3.i
  %queue_.i = getelementptr inbounds i8, ptr %this, i64 72
  %12 = load ptr, ptr %queue_.i, align 8
  tail call void @_ZN8proxygen18HTTP2PriorityQueue22scheduleNodeExpirationEPNS0_4NodeE(ptr noundef nonnull align 8 dereferenceable(312) %12, ptr noundef nonnull %this)
  br label %_ZN8proxygen18HTTP2PriorityQueue4Node14refreshTimeoutEv.exit

_ZN8proxygen18HTTP2PriorityQueue4Node14refreshTimeoutEv.exit: ; preds = %if.end, %land.lhs.true.i, %land.lhs.true3.i, %if.then.i
  ret void
}